target datalayout = "e-m:e-p270:32:32-p271:32:32-p272:64:64-i64:64-i128:128-f80:128-n8:16:32:64-S128"
target triple = "x86_64-pc-linux-gnu"

%struct.hwloc_infos_s = type { ptr, i32, i32 }
%struct.hwloc_numanode_attr_s = type { i64, i32, ptr }
%struct.hwloc_obj = type { i32, ptr, i32, ptr, i64, ptr, i32, i32, ptr, ptr, ptr, i32, ptr, ptr, i32, ptr, ptr, ptr, i32, i32, ptr, i32, ptr, i32, ptr, ptr, ptr, ptr, ptr, %struct.hwloc_infos_s, ptr, i64 }
%struct.hwloc_cache_attr_s = type { i64, i32, i32, i32, i32 }
%struct.hwloc_synthetic_attr_s = type { i32, i32, i32, i64, i64 }
%struct.hwloc_group_attr_s = type { i32, i32, i32, i8 }
%struct.hwloc_memory_page_type_s = type { i64, i64 }

; Function Attrs: nounwind uwtable
define internal void @hwloc_synthetic_set_attr(ptr noundef %0, ptr noundef %1) #0 {
  %3 = alloca ptr, align 8
  %4 = alloca ptr, align 8
  store ptr %0, ptr %3, align 8, !tbaa !144
  store ptr %1, ptr %4, align 8, !tbaa !12
  %5 = load ptr, ptr %4, align 8, !tbaa !12
  %6 = getelementptr inbounds nuw %struct.hwloc_obj, ptr %5, i32 0, i32 0
  %7 = load i32, ptr %6, align 8, !tbaa !46
  switch i32 %7, label %108 [
    i32 13, label %8
    i32 0, label %109
    i32 14, label %21
    i32 15, label %61
    i32 1, label %81
    i32 2, label %81
    i32 5, label %82
    i32 6, label %82
    i32 7, label %82
    i32 8, label %82
    i32 9, label %82
    i32 10, label %82
    i32 11, label %82
    i32 12, label %82
    i32 3, label %109
    i32 4, label %109
  ]

8:                                                ; preds = %2
  %9 = load ptr, ptr %4, align 8, !tbaa !12
  %10 = getelementptr inbounds nuw %struct.hwloc_obj, ptr %9, i32 0, i32 5
  %11 = load ptr, ptr %10, align 8, !tbaa !65
  %12 = getelementptr inbounds nuw %struct.hwloc_group_attr_s, ptr %11, i32 0, i32 1
  store i32 10, ptr %12, align 4, !tbaa !66
  %13 = load ptr, ptr %3, align 8, !tbaa !144
  %14 = getelementptr inbounds nuw %struct.hwloc_synthetic_attr_s, ptr %13, i32 0, i32 1
  %15 = load i32, ptr %14, align 4, !tbaa !154
  %16 = sub i32 %15, 1
  %17 = load ptr, ptr %4, align 8, !tbaa !12
  %18 = getelementptr inbounds nuw %struct.hwloc_obj, ptr %17, i32 0, i32 5
  %19 = load ptr, ptr %18, align 8, !tbaa !65
  %20 = getelementptr inbounds nuw %struct.hwloc_group_attr_s, ptr %19, i32 0, i32 2
  store i32 %16, ptr %20, align 8, !tbaa !66
  br label %109

21:                                               ; preds = %2
  %22 = load ptr, ptr %3, align 8, !tbaa !144
  %23 = getelementptr inbounds nuw %struct.hwloc_synthetic_attr_s, ptr %22, i32 0, i32 3
  %24 = load i64, ptr %23, align 8, !tbaa !151
  %25 = load ptr, ptr %4, align 8, !tbaa !12
  %26 = getelementptr inbounds nuw %struct.hwloc_obj, ptr %25, i32 0, i32 5
  %27 = load ptr, ptr %26, align 8, !tbaa !65
  %28 = getelementptr inbounds nuw %struct.hwloc_numanode_attr_s, ptr %27, i32 0, i32 0
  store i64 %24, ptr %28, align 8, !tbaa !66
  %29 = load ptr, ptr %4, align 8, !tbaa !12
  %30 = getelementptr inbounds nuw %struct.hwloc_obj, ptr %29, i32 0, i32 5
  %31 = load ptr, ptr %30, align 8, !tbaa !65
  %32 = getelementptr inbounds nuw %struct.hwloc_numanode_attr_s, ptr %31, i32 0, i32 1
  store i32 1, ptr %32, align 8, !tbaa !66
  %33 = call noalias ptr @malloc(i64 noundef 16) #16
  %34 = load ptr, ptr %4, align 8, !tbaa !12
  %35 = getelementptr inbounds nuw %struct.hwloc_obj, ptr %34, i32 0, i32 5
  %36 = load ptr, ptr %35, align 8, !tbaa !65
  %37 = getelementptr inbounds nuw %struct.hwloc_numanode_attr_s, ptr %36, i32 0, i32 2
  store ptr %33, ptr %37, align 8, !tbaa !66
  %38 = load ptr, ptr %4, align 8, !tbaa !12
  %39 = getelementptr inbounds nuw %struct.hwloc_obj, ptr %38, i32 0, i32 5
  %40 = load ptr, ptr %39, align 8, !tbaa !65
  %41 = getelementptr inbounds nuw %struct.hwloc_numanode_attr_s, ptr %40, i32 0, i32 2
  %42 = load ptr, ptr %41, align 8, !tbaa !66
  call void @llvm.memset.p0.i64(ptr align 8 %42, i8 0, i64 16, i1 false)
  %43 = load ptr, ptr %4, align 8, !tbaa !12
  %44 = getelementptr inbounds nuw %struct.hwloc_obj, ptr %43, i32 0, i32 5
  %45 = load ptr, ptr %44, align 8, !tbaa !65
  %46 = getelementptr inbounds nuw %struct.hwloc_numanode_attr_s, ptr %45, i32 0, i32 2
  %47 = load ptr, ptr %46, align 8, !tbaa !66
  %48 = getelementptr inbounds %struct.hwloc_memory_page_type_s, ptr %47, i64 0
  %49 = getelementptr inbounds nuw %struct.hwloc_memory_page_type_s, ptr %48, i32 0, i32 0
  store i64 4096, ptr %49, align 8, !tbaa !173
  %50 = load ptr, ptr %3, align 8, !tbaa !144
  %51 = getelementptr inbounds nuw %struct.hwloc_synthetic_attr_s, ptr %50, i32 0, i32 3
  %52 = load i64, ptr %51, align 8, !tbaa !151
  %53 = udiv i64 %52, 4096
  %54 = load ptr, ptr %4, align 8, !tbaa !12
  %55 = getelementptr inbounds nuw %struct.hwloc_obj, ptr %54, i32 0, i32 5
  %56 = load ptr, ptr %55, align 8, !tbaa !65
  %57 = getelementptr inbounds nuw %struct.hwloc_numanode_attr_s, ptr %56, i32 0, i32 2
  %58 = load ptr, ptr %57, align 8, !tbaa !66
  %59 = getelementptr inbounds %struct.hwloc_memory_page_type_s, ptr %58, i64 0
  %60 = getelementptr inbounds nuw %struct.hwloc_memory_page_type_s, ptr %59, i32 0, i32 1
  store i64 %53, ptr %60, align 8, !tbaa !175
  br label %109

61:                                               ; preds = %2
  %62 = load ptr, ptr %4, align 8, !tbaa !12
  %63 = getelementptr inbounds nuw %struct.hwloc_obj, ptr %62, i32 0, i32 5
  %64 = load ptr, ptr %63, align 8, !tbaa !65
  %65 = getelementptr inbounds nuw %struct.hwloc_cache_attr_s, ptr %64, i32 0, i32 1
  store i32 1, ptr %65, align 8, !tbaa !66
  %66 = load ptr, ptr %4, align 8, !tbaa !12
  %67 = getelementptr inbounds nuw %struct.hwloc_obj, ptr %66, i32 0, i32 5
  %68 = load ptr, ptr %67, align 8, !tbaa !65
  %69 = getelementptr inbounds nuw %struct.hwloc_cache_attr_s, ptr %68, i32 0, i32 2
  store i32 64, ptr %69, align 4, !tbaa !66
  %70 = load ptr, ptr %4, align 8, !tbaa !12
  %71 = getelementptr inbounds nuw %struct.hwloc_obj, ptr %70, i32 0, i32 5
  %72 = load ptr, ptr %71, align 8, !tbaa !65
  %73 = getelementptr inbounds nuw %struct.hwloc_cache_attr_s, ptr %72, i32 0, i32 4
  store i32 0, ptr %73, align 4, !tbaa !66
  %74 = load ptr, ptr %3, align 8, !tbaa !144
  %75 = getelementptr inbounds nuw %struct.hwloc_synthetic_attr_s, ptr %74, i32 0, i32 4
  %76 = load i64, ptr %75, align 8, !tbaa !149
  %77 = load ptr, ptr %4, align 8, !tbaa !12
  %78 = getelementptr inbounds nuw %struct.hwloc_obj, ptr %77, i32 0, i32 5
  %79 = load ptr, ptr %78, align 8, !tbaa !65
  %80 = getelementptr inbounds nuw %struct.hwloc_cache_attr_s, ptr %79, i32 0, i32 0
  store i64 %76, ptr %80, align 8, !tbaa !66
  br label %109

81:                                               ; preds = %2, %2
  br label %109

82:                                               ; preds = %2, %2, %2, %2, %2, %2, %2, %2
  %83 = load ptr, ptr %3, align 8, !tbaa !144
  %84 = getelementptr inbounds nuw %struct.hwloc_synthetic_attr_s, ptr %83, i32 0, i32 1
  %85 = load i32, ptr %84, align 4, !tbaa !154
  %86 = load ptr, ptr %4, align 8, !tbaa !12
  %87 = getelementptr inbounds nuw %struct.hwloc_obj, ptr %86, i32 0, i32 5
  %88 = load ptr, ptr %87, align 8, !tbaa !65
  %89 = getelementptr inbounds nuw %struct.hwloc_cache_attr_s, ptr %88, i32 0, i32 1
  store i32 %85, ptr %89, align 8, !tbaa !66
  %90 = load ptr, ptr %4, align 8, !tbaa !12
  %91 = getelementptr inbounds nuw %struct.hwloc_obj, ptr %90, i32 0, i32 5
  %92 = load ptr, ptr %91, align 8, !tbaa !65
  %93 = getelementptr inbounds nuw %struct.hwloc_cache_attr_s, ptr %92, i32 0, i32 2
  store i32 64, ptr %93, align 4, !tbaa !66
  %94 = load ptr, ptr %3, align 8, !tbaa !144
  %95 = getelementptr inbounds nuw %struct.hwloc_synthetic_attr_s, ptr %94, i32 0, i32 2
  %96 = load i32, ptr %95, align 8, !tbaa !176
  %97 = load ptr, ptr %4, align 8, !tbaa !12
  %98 = getelementptr inbounds nuw %struct.hwloc_obj, ptr %97, i32 0, i32 5
  %99 = load ptr, ptr %98, align 8, !tbaa !65
  %100 = getelementptr inbounds nuw %struct.hwloc_cache_attr_s, ptr %99, i32 0, i32 4
  store i32 %96, ptr %100, align 4, !tbaa !66
  %101 = load ptr, ptr %3, align 8, !tbaa !144
  %102 = getelementptr inbounds nuw %struct.hwloc_synthetic_attr_s, ptr %101, i32 0, i32 3
  %103 = load i64, ptr %102, align 8, !tbaa !151
  %104 = load ptr, ptr %4, align 8, !tbaa !12
  %105 = getelementptr inbounds nuw %struct.hwloc_obj, ptr %104, i32 0, i32 5
  %106 = load ptr, ptr %105, align 8, !tbaa !65
  %107 = getelementptr inbounds nuw %struct.hwloc_cache_attr_s, ptr %106, i32 0, i32 0
  store i64 %103, ptr %107, align 8, !tbaa !66
  br label %109

108:                                              ; preds = %2
  br label %109

109:                                              ; preds = %108, %2, %2, %82, %2, %81, %61, %21, %8
  ret void
}