; Function Attrs: mustprogress nofree nounwind willreturn uwtable
define internal fastcc void @hwloc_synthetic_set_attr(ptr noundef readonly captures(none) %0, ptr noundef readonly captures(none) %1) unnamed_addr #13 {
  %3 = load i32, ptr %1, align 8, !tbaa !50
  switch i32 %3, label %59 [
    i32 13, label %4
    i32 12, label %44
    i32 14, label %13
    i32 15, label %33
    i32 11, label %44
    i32 10, label %44
    i32 5, label %44
    i32 6, label %44
    i32 7, label %44
    i32 8, label %44
    i32 9, label %44
  ]

4:                                                ; preds = %2
  %5 = getelementptr inbounds nuw i8, ptr %1, i64 40
  %6 = load ptr, ptr %5, align 8, !tbaa !59
  %7 = getelementptr inbounds nuw i8, ptr %6, i64 4
  store i32 10, ptr %7, align 4, !tbaa !56
  %8 = getelementptr inbounds nuw i8, ptr %0, i64 4
  %9 = load i32, ptr %8, align 4, !tbaa !108
  %10 = add i32 %9, -1
  %11 = load ptr, ptr %5, align 8, !tbaa !59
  %12 = getelementptr inbounds nuw i8, ptr %11, i64 8
  store i32 %10, ptr %12, align 8, !tbaa !56
  br label %59

13:                                               ; preds = %2
  %14 = getelementptr inbounds nuw i8, ptr %0, i64 16
  %15 = load i64, ptr %14, align 8, !tbaa !109
  %16 = getelementptr inbounds nuw i8, ptr %1, i64 40
  %17 = load ptr, ptr %16, align 8, !tbaa !59
  store i64 %15, ptr %17, align 8, !tbaa !56
  %18 = load ptr, ptr %16, align 8, !tbaa !59
  %19 = getelementptr inbounds nuw i8, ptr %18, i64 8
  store i32 1, ptr %19, align 8, !tbaa !56
  %20 = tail call noalias dereferenceable_or_null(16) ptr @malloc(i64 noundef 16) #27
  %21 = load ptr, ptr %16, align 8, !tbaa !59
  %22 = getelementptr inbounds nuw i8, ptr %21, i64 16
  store ptr %20, ptr %22, align 8, !tbaa !56
  %23 = load ptr, ptr %16, align 8, !tbaa !59
  %24 = getelementptr inbounds nuw i8, ptr %23, i64 16
  %25 = load ptr, ptr %24, align 8, !tbaa !56
  tail call void @llvm.memset.p0.i64(ptr noundef nonnull align 8 dereferenceable(16) %25, i8 0, i64 16, i1 false)
  %26 = load ptr, ptr %16, align 8, !tbaa !59
  %27 = getelementptr inbounds nuw i8, ptr %26, i64 16
  %28 = load ptr, ptr %27, align 8, !tbaa !56
  store i64 4096, ptr %28, align 8, !tbaa !146
  %29 = load i64, ptr %14, align 8, !tbaa !109
  %30 = lshr i64 %29, 12
  %31 = load ptr, ptr %27, align 8, !tbaa !56
  %32 = getelementptr inbounds nuw i8, ptr %31, i64 8
  store i64 %30, ptr %32, align 8, !tbaa !148
  br label %59

33:                                               ; preds = %2
  %34 = getelementptr inbounds nuw i8, ptr %1, i64 40
  %35 = load ptr, ptr %34, align 8, !tbaa !59
  %36 = getelementptr inbounds nuw i8, ptr %35, i64 8
  store i32 1, ptr %36, align 8, !tbaa !56
  %37 = load ptr, ptr %34, align 8, !tbaa !59
  %38 = getelementptr inbounds nuw i8, ptr %37, i64 12
  store i32 64, ptr %38, align 4, !tbaa !56
  %39 = load ptr, ptr %34, align 8, !tbaa !59
  %40 = getelementptr inbounds nuw i8, ptr %39, i64 20
  store i32 0, ptr %40, align 4, !tbaa !56
  %41 = getelementptr inbounds nuw i8, ptr %0, i64 24
  %42 = load i64, ptr %41, align 8, !tbaa !132
  %43 = load ptr, ptr %34, align 8, !tbaa !59
  store i64 %42, ptr %43, align 8, !tbaa !56
  br label %59

44:                                               ; preds = %2, %2, %2, %2, %2, %2, %2, %2
  %45 = getelementptr inbounds nuw i8, ptr %0, i64 4
  %46 = load i32, ptr %45, align 4, !tbaa !108
  %47 = getelementptr inbounds nuw i8, ptr %1, i64 40
  %48 = load ptr, ptr %47, align 8, !tbaa !59
  %49 = getelementptr inbounds nuw i8, ptr %48, i64 8
  store i32 %46, ptr %49, align 8, !tbaa !56
  %50 = load ptr, ptr %47, align 8, !tbaa !59
  %51 = getelementptr inbounds nuw i8, ptr %50, i64 12
  store i32 64, ptr %51, align 4, !tbaa !56
  %52 = getelementptr inbounds nuw i8, ptr %0, i64 8
  %53 = load i32, ptr %52, align 8, !tbaa !149
  %54 = load ptr, ptr %47, align 8, !tbaa !59
  %55 = getelementptr inbounds nuw i8, ptr %54, i64 20
  store i32 %53, ptr %55, align 4, !tbaa !56
  %56 = getelementptr inbounds nuw i8, ptr %0, i64 16
  %57 = load i64, ptr %56, align 8, !tbaa !109
  %58 = load ptr, ptr %47, align 8, !tbaa !59
  store i64 %57, ptr %58, align 8, !tbaa !56
  br label %59

59:                                               ; preds = %2, %44, %33, %13, %4
  ret void
}